; Function Attrs: nounwind sspstrong uwtable
define internal void @set_rdt(ptr noundef captures(none) %s, i32 noundef %index, i32 noundef %val) #0 {
entry:
  %and = and i32 %val, 65535
  %mac_reg = getelementptr inbounds nuw i8, ptr %s, i64 11376
  %idxprom = sext i32 %index to i64
  %arrayidx = getelementptr [32768 x i32], ptr %mac_reg, i64 0, i64 %idxprom
  store i32 %and, ptr %arrayidx, align 4
  %rxbuf_size.i = getelementptr inbounds nuw i8, ptr %s, i64 142640
  %0 = load i32, ptr %rxbuf_size.i, align 16
  %cmp.not.i = icmp eq i32 %0, 0
  %arrayidx7.i = getelementptr i8, ptr %s, i64 21632
  %1 = load i32, ptr %arrayidx7.i, align 16
  %arrayidx9.i = getelementptr i8, ptr %s, i64 21640
  %2 = load i32, ptr %arrayidx9.i, align 8
  %cmp4.i.not = icmp eq i32 %1, %2
  %or.cond = select i1 %cmp.not.i, i1 true, i1 %cmp4.i.not
  br i1 %or.cond, label %if.end, label %if.then

if.then:                                          ; preds = %entry
  %nic = getelementptr inbounds nuw i8, ptr %s, i64 2608
  %3 = load ptr, ptr %nic, align 16
  %call1 = tail call ptr @qemu_get_queue(ptr noundef %3) #13
  tail call void @qemu_flush_queued_packets(ptr noundef %call1) #13
  br label %if.end

if.end:                                           ; preds = %entry, %if.then
  ret void
}